target datalayout = "e-m:e-p270:32:32-p271:32:32-p272:64:64-i64:64-i128:128-f80:128-n8:16:32:64-S128"
target triple = "x86_64-pc-linux-gnu"

%"class.std::__cxx11::basic_string" = type { %"struct.std::__cxx11::basic_string<char>::_Alloc_hider", i64, %union.anon }
%"struct.std::__cxx11::basic_string<char>::_Alloc_hider" = type { ptr }
%union.anon = type { i64, [8 x i8] }
%"class.std::__shared_count" = type { ptr }
%"class.std::vector.69" = type { %"struct.std::_Vector_base.70" }
%"struct.std::_Vector_base.70" = type { %"struct.std::_Vector_base<std::__cxx11::basic_string<char>, std::allocator<std::__cxx11::basic_string<char>>>::_Vector_impl" }
%"struct.std::_Vector_base<std::__cxx11::basic_string<char>, std::allocator<std::__cxx11::basic_string<char>>>::_Vector_impl" = type { %"struct.std::_Vector_base<std::__cxx11::basic_string<char>, std::allocator<std::__cxx11::basic_string<char>>>::_Vector_impl_data" }
%"struct.std::_Vector_base<std::__cxx11::basic_string<char>, std::allocator<std::__cxx11::basic_string<char>>>::_Vector_impl_data" = type { ptr, ptr, ptr }
%"class.std::optional.54" = type { %"struct.std::_Optional_base.55" }
%"struct.std::_Optional_base.55" = type { %"struct.std::_Optional_payload.57" }
%"struct.std::_Optional_payload.57" = type { %"struct.std::_Optional_payload.base.61", [7 x i8] }
%"struct.std::_Optional_payload.base.61" = type { %"struct.std::_Optional_payload_base.base.60" }
%"struct.std::_Optional_payload_base.base.60" = type <{ %"union.std::_Optional_payload_base<std::__cxx11::basic_string<char>>::_Storage", i8 }>
%"union.std::_Optional_payload_base<std::__cxx11::basic_string<char>>::_Storage" = type { %"class.std::__cxx11::basic_string" }
%"class.std::future" = type { %"class.std::__basic_future" }
%"class.std::__basic_future" = type { %"class.std::shared_ptr.43" }
%"class.std::shared_ptr.43" = type { %"class.std::__shared_ptr.44" }
%"class.std::__shared_ptr.44" = type { ptr, %"class.std::__shared_count" }
%"struct.nix::FileTransferResult" = type { i8, %"class.std::__cxx11::basic_string", %"class.std::vector.69", %"class.std::__cxx11::basic_string", i64, %"class.std::optional.54" }

; Function Attrs: mustprogress uwtable
define void @_ZN3nix12FileTransfer8downloadERKNS_19FileTransferRequestE(ptr dead_on_unwind noalias writable sret(%"struct.nix::FileTransferResult") align 8 %0, ptr noundef nonnull align 8 dereferenceable(8) %1, ptr noundef nonnull align 8 dereferenceable(232) %2) #5 align 2 personality ptr @__gxx_personality_v0 {
  %4 = alloca ptr, align 8
  %5 = alloca ptr, align 8
  %6 = alloca ptr, align 8
  %7 = alloca %"class.std::future", align 8
  %8 = alloca ptr, align 8
  %9 = alloca i32, align 4
  store ptr %0, ptr %4, align 8
  store ptr %1, ptr %5, align 8
  store ptr %2, ptr %6, align 8
  %10 = load ptr, ptr %5, align 8
  %11 = load ptr, ptr %6, align 8
  call void @_ZN3nix12FileTransfer19enqueueFileTransferERKNS_19FileTransferRequestE(ptr dead_on_unwind writable sret(%"class.std::future") align 8 %7, ptr noundef nonnull align 8 dereferenceable(8) %10, ptr noundef nonnull align 8 dereferenceable(232) %11)
  invoke void @_ZNSt6futureIN3nix18FileTransferResultEE3getEv(ptr dead_on_unwind writable sret(%"struct.nix::FileTransferResult") align 8 %0, ptr noundef nonnull align 8 dereferenceable(16) %7)
          to label %12 unwind label %13

12:                                               ; preds = %3
  call void @_ZNSt6futureIN3nix18FileTransferResultEED2Ev(ptr noundef nonnull align 8 dereferenceable(16) %7) #1
  ret void

13:                                               ; preds = %3
  %14 = landingpad { ptr, i32 }
          cleanup
  %15 = extractvalue { ptr, i32 } %14, 0
  store ptr %15, ptr %8, align 8
  %16 = extractvalue { ptr, i32 } %14, 1
  store i32 %16, ptr %9, align 4
  call void @_ZNSt6futureIN3nix18FileTransferResultEED2Ev(ptr noundef nonnull align 8 dereferenceable(16) %7) #1
  br label %17

17:                                               ; preds = %13
  %18 = load ptr, ptr %8, align 8
  %19 = load i32, ptr %9, align 4
  %20 = insertvalue { ptr, i32 } poison, ptr %18, 0
  %21 = insertvalue { ptr, i32 } %20, i32 %19, 1
  resume { ptr, i32 } %21
}